target datalayout = "e-m:e-p270:32:32-p271:32:32-p272:64:64-i64:64-i128:128-f80:128-n8:16:32:64-S128"
target triple = "x86_64-pc-linux-gnu"

%struct._object = type { %union.anon, ptr }
%union.anon = type { i64 }
%struct._structmodulestate = type { ptr, ptr, ptr, ptr }
%struct.Py_buffer = type { ptr, ptr, i64, i64, i32, i32, ptr, ptr, ptr, ptr, ptr }
%struct.PyModuleObject = type { %struct._object, ptr, ptr, ptr, ptr, ptr }
%struct.PyStructObject = type { %struct._object, i64, i64, ptr, ptr, ptr }

@_Py_NoneStruct = external global %struct._object, align 8
@.str.16 = private unnamed_addr constant [35 x i8] c"pack_into expected buffer argument\00", align 1
@.str.17 = private unnamed_addr constant [35 x i8] c"pack_into expected offset argument\00", align 1
@.str.18 = private unnamed_addr constant [51 x i8] c"pack_into expected %zd items for packing (got %zd)\00", align 1
@.str.19 = private unnamed_addr constant [3 x i8] c"w*\00", align 1
@PyExc_IndexError = external global ptr, align 8
@.str.20 = private unnamed_addr constant [41 x i8] c"no space to pack %zd bytes at offset %zd\00", align 1
@.str.21 = private unnamed_addr constant [44 x i8] c"offset %zd out of range for %zd-byte buffer\00", align 1
@.str.22 = private unnamed_addr constant [114 x i8] c"pack_into requires a buffer of at least %zu bytes for packing %zd bytes at offset %zd (actual buffer size is %zd)\00", align 1

; Function Attrs: inlinehint nounwind uwtable
define internal ptr @_PyModule_GetState(ptr noundef %0) #2 {
  %2 = alloca ptr, align 8
  store ptr %0, ptr %2, align 8, !tbaa !3
  %3 = load ptr, ptr %2, align 8, !tbaa !3
  %4 = getelementptr inbounds nuw %struct.PyModuleObject, ptr %3, i32 0, i32 3
  %5 = load ptr, ptr %4, align 8, !tbaa !24
  ret ptr %5
}

; Function Attrs: inlinehint nounwind uwtable
define internal ptr @get_struct_state(ptr noundef %0) #2 {
  %2 = alloca ptr, align 8
  %3 = alloca ptr, align 8
  store ptr %0, ptr %2, align 8, !tbaa !3
  call void @llvm.lifetime.start.p0(i64 8, ptr %3) #8
  %4 = load ptr, ptr %2, align 8, !tbaa !3
  %5 = call ptr @_PyModule_GetState(ptr noundef %4)
  store ptr %5, ptr %3, align 8, !tbaa !8
  %6 = load ptr, ptr %3, align 8, !tbaa !8
  call void @llvm.lifetime.end.p0(i64 8, ptr %3) #8
  ret ptr %6
}

; Function Attrs: inlinehint nounwind uwtable
define internal ptr @_Py_TYPE(ptr noundef %0) #2 {
  %2 = alloca ptr, align 8
  store ptr %0, ptr %2, align 8, !tbaa !3
  %3 = load ptr, ptr %2, align 8, !tbaa !3
  %4 = getelementptr inbounds nuw %struct._object, ptr %3, i32 0, i32 1
  %5 = load ptr, ptr %4, align 8, !tbaa !41
  ret ptr %5
}

; Function Attrs: nounwind uwtable
define internal ptr @s_pack_into(ptr noundef %0, ptr noundef %1, i64 noundef %2) #0 {
  %4 = alloca ptr, align 8
  %5 = alloca ptr, align 8
  %6 = alloca ptr, align 8
  %7 = alloca i64, align 8
  %8 = alloca ptr, align 8
  %9 = alloca %struct.Py_buffer, align 8
  %10 = alloca i64, align 8
  %11 = alloca ptr, align 8
  %12 = alloca i32, align 4
  store ptr %0, ptr %5, align 8, !tbaa !3
  store ptr %1, ptr %6, align 8, !tbaa !16
  store i64 %2, ptr %7, align 8, !tbaa !18
  call void @llvm.lifetime.start.p0(i64 8, ptr %8) #8
  call void @llvm.lifetime.start.p0(i64 80, ptr %9) #8
  call void @llvm.lifetime.start.p0(i64 8, ptr %10) #8
  call void @llvm.lifetime.start.p0(i64 8, ptr %11) #8
  %13 = load ptr, ptr %5, align 8, !tbaa !3
  %14 = call ptr @_Py_TYPE(ptr noundef %13)
  %15 = call ptr @PyType_GetModuleByDef(ptr noundef %14, ptr noundef @_structmodule)
  %16 = call ptr @get_struct_state(ptr noundef %15)
  store ptr %16, ptr %11, align 8, !tbaa !8
  %17 = load ptr, ptr %5, align 8, !tbaa !3
  store ptr %17, ptr %8, align 8, !tbaa !8
  %18 = load i64, ptr %7, align 8, !tbaa !18
  %19 = load ptr, ptr %8, align 8, !tbaa !8
  %20 = getelementptr inbounds nuw %struct.PyStructObject, ptr %19, i32 0, i32 2
  %21 = load i64, ptr %20, align 8, !tbaa !42
  %22 = add i64 %21, 2
  %23 = icmp ne i64 %18, %22
  br i1 %23, label %24, label %52

24:                                               ; preds = %3
  %25 = load i64, ptr %7, align 8, !tbaa !18
  %26 = icmp eq i64 %25, 0
  br i1 %26, label %27, label %32

27:                                               ; preds = %24
  %28 = load ptr, ptr %11, align 8, !tbaa !8
  %29 = getelementptr inbounds nuw %struct._structmodulestate, ptr %28, i32 0, i32 3
  %30 = load ptr, ptr %29, align 8, !tbaa !15
  %31 = call ptr (ptr, ptr, ...) @PyErr_Format(ptr noundef %30, ptr noundef @.str.16)
  br label %51

32:                                               ; preds = %24
  %33 = load i64, ptr %7, align 8, !tbaa !18
  %34 = icmp eq i64 %33, 1
  br i1 %34, label %35, label %40

35:                                               ; preds = %32
  %36 = load ptr, ptr %11, align 8, !tbaa !8
  %37 = getelementptr inbounds nuw %struct._structmodulestate, ptr %36, i32 0, i32 3
  %38 = load ptr, ptr %37, align 8, !tbaa !15
  %39 = call ptr (ptr, ptr, ...) @PyErr_Format(ptr noundef %38, ptr noundef @.str.17)
  br label %50

40:                                               ; preds = %32
  %41 = load ptr, ptr %11, align 8, !tbaa !8
  %42 = getelementptr inbounds nuw %struct._structmodulestate, ptr %41, i32 0, i32 3
  %43 = load ptr, ptr %42, align 8, !tbaa !15
  %44 = load ptr, ptr %8, align 8, !tbaa !8
  %45 = getelementptr inbounds nuw %struct.PyStructObject, ptr %44, i32 0, i32 2
  %46 = load i64, ptr %45, align 8, !tbaa !42
  %47 = load i64, ptr %7, align 8, !tbaa !18
  %48 = sub i64 %47, 2
  %49 = call ptr (ptr, ptr, ...) @PyErr_Format(ptr noundef %43, ptr noundef @.str.18, i64 noundef %46, i64 noundef %48)
  br label %50

50:                                               ; preds = %40, %35
  br label %51

51:                                               ; preds = %50, %27
  store ptr null, ptr %4, align 8
  store i32 1, ptr %12, align 4
  br label %146

52:                                               ; preds = %3
  %53 = load ptr, ptr %6, align 8, !tbaa !16
  %54 = getelementptr ptr, ptr %53, i64 0
  %55 = load ptr, ptr %54, align 8, !tbaa !3
  %56 = call i32 (ptr, ptr, ...) @PyArg_Parse(ptr noundef %55, ptr noundef @.str.19, ptr noundef %9)
  %57 = icmp ne i32 %56, 0
  br i1 %57, label %59, label %58

58:                                               ; preds = %52
  store ptr null, ptr %4, align 8
  store i32 1, ptr %12, align 4
  br label %146

59:                                               ; preds = %52
  %60 = load ptr, ptr %6, align 8, !tbaa !16
  %61 = getelementptr ptr, ptr %60, i64 1
  %62 = load ptr, ptr %61, align 8, !tbaa !3
  %63 = load ptr, ptr @PyExc_IndexError, align 8, !tbaa !3
  %64 = call i64 @PyNumber_AsSsize_t(ptr noundef %62, ptr noundef %63)
  store i64 %64, ptr %10, align 8, !tbaa !18
  %65 = load i64, ptr %10, align 8, !tbaa !18
  %66 = icmp eq i64 %65, -1
  br i1 %66, label %67, label %71

67:                                               ; preds = %59
  %68 = call ptr @PyErr_Occurred()
  %69 = icmp ne ptr %68, null
  br i1 %69, label %70, label %71

70:                                               ; preds = %67
  call void @PyBuffer_Release(ptr noundef %9)
  store ptr null, ptr %4, align 8
  store i32 1, ptr %12, align 4
  br label %146

71:                                               ; preds = %67, %59
  %72 = load i64, ptr %10, align 8, !tbaa !18
  %73 = icmp slt i64 %72, 0
  br i1 %73, label %74, label %109

74:                                               ; preds = %71
  %75 = load i64, ptr %10, align 8, !tbaa !18
  %76 = load ptr, ptr %8, align 8, !tbaa !8
  %77 = getelementptr inbounds nuw %struct.PyStructObject, ptr %76, i32 0, i32 1
  %78 = load i64, ptr %77, align 8, !tbaa !29
  %79 = add i64 %75, %78
  %80 = icmp sgt i64 %79, 0
  br i1 %80, label %81, label %90

81:                                               ; preds = %74
  %82 = load ptr, ptr %11, align 8, !tbaa !8
  %83 = getelementptr inbounds nuw %struct._structmodulestate, ptr %82, i32 0, i32 3
  %84 = load ptr, ptr %83, align 8, !tbaa !15
  %85 = load ptr, ptr %8, align 8, !tbaa !8
  %86 = getelementptr inbounds nuw %struct.PyStructObject, ptr %85, i32 0, i32 1
  %87 = load i64, ptr %86, align 8, !tbaa !29
  %88 = load i64, ptr %10, align 8, !tbaa !18
  %89 = call ptr (ptr, ptr, ...) @PyErr_Format(ptr noundef %84, ptr noundef @.str.20, i64 noundef %87, i64 noundef %88)
  call void @PyBuffer_Release(ptr noundef %9)
  store ptr null, ptr %4, align 8
  store i32 1, ptr %12, align 4
  br label %146

90:                                               ; preds = %74
  %91 = load i64, ptr %10, align 8, !tbaa !18
  %92 = getelementptr inbounds nuw %struct.Py_buffer, ptr %9, i32 0, i32 2
  %93 = load i64, ptr %92, align 8, !tbaa !70
  %94 = add i64 %91, %93
  %95 = icmp slt i64 %94, 0
  br i1 %95, label %96, label %104

96:                                               ; preds = %90
  %97 = load ptr, ptr %11, align 8, !tbaa !8
  %98 = getelementptr inbounds nuw %struct._structmodulestate, ptr %97, i32 0, i32 3
  %99 = load ptr, ptr %98, align 8, !tbaa !15
  %100 = load i64, ptr %10, align 8, !tbaa !18
  %101 = getelementptr inbounds nuw %struct.Py_buffer, ptr %9, i32 0, i32 2
  %102 = load i64, ptr %101, align 8, !tbaa !70
  %103 = call ptr (ptr, ptr, ...) @PyErr_Format(ptr noundef %99, ptr noundef @.str.21, i64 noundef %100, i64 noundef %102)
  call void @PyBuffer_Release(ptr noundef %9)
  store ptr null, ptr %4, align 8
  store i32 1, ptr %12, align 4
  br label %146

104:                                              ; preds = %90
  %105 = getelementptr inbounds nuw %struct.Py_buffer, ptr %9, i32 0, i32 2
  %106 = load i64, ptr %105, align 8, !tbaa !70
  %107 = load i64, ptr %10, align 8, !tbaa !18
  %108 = add i64 %107, %106
  store i64 %108, ptr %10, align 8, !tbaa !18
  br label %109

109:                                              ; preds = %104, %71
  %110 = getelementptr inbounds nuw %struct.Py_buffer, ptr %9, i32 0, i32 2
  %111 = load i64, ptr %110, align 8, !tbaa !70
  %112 = load i64, ptr %10, align 8, !tbaa !18
  %113 = sub i64 %111, %112
  %114 = load ptr, ptr %8, align 8, !tbaa !8
  %115 = getelementptr inbounds nuw %struct.PyStructObject, ptr %114, i32 0, i32 1
  %116 = load i64, ptr %115, align 8, !tbaa !29
  %117 = icmp slt i64 %113, %116
  br i1 %117, label %118, label %134

118:                                              ; preds = %109
  %119 = load ptr, ptr %11, align 8, !tbaa !8
  %120 = getelementptr inbounds nuw %struct._structmodulestate, ptr %119, i32 0, i32 3
  %121 = load ptr, ptr %120, align 8, !tbaa !15
  %122 = load ptr, ptr %8, align 8, !tbaa !8
  %123 = getelementptr inbounds nuw %struct.PyStructObject, ptr %122, i32 0, i32 1
  %124 = load i64, ptr %123, align 8, !tbaa !29
  %125 = load i64, ptr %10, align 8, !tbaa !18
  %126 = add i64 %124, %125
  %127 = load ptr, ptr %8, align 8, !tbaa !8
  %128 = getelementptr inbounds nuw %struct.PyStructObject, ptr %127, i32 0, i32 1
  %129 = load i64, ptr %128, align 8, !tbaa !29
  %130 = load i64, ptr %10, align 8, !tbaa !18
  %131 = getelementptr inbounds nuw %struct.Py_buffer, ptr %9, i32 0, i32 2
  %132 = load i64, ptr %131, align 8, !tbaa !70
  %133 = call ptr (ptr, ptr, ...) @PyErr_Format(ptr noundef %121, ptr noundef @.str.22, i64 noundef %126, i64 noundef %129, i64 noundef %130, i64 noundef %132)
  call void @PyBuffer_Release(ptr noundef %9)
  store ptr null, ptr %4, align 8
  store i32 1, ptr %12, align 4
  br label %146

134:                                              ; preds = %109
  %135 = load ptr, ptr %8, align 8, !tbaa !8
  %136 = load ptr, ptr %6, align 8, !tbaa !16
  %137 = getelementptr inbounds nuw %struct.Py_buffer, ptr %9, i32 0, i32 0
  %138 = load ptr, ptr %137, align 8, !tbaa !71
  %139 = load i64, ptr %10, align 8, !tbaa !18
  %140 = getelementptr i8, ptr %138, i64 %139
  %141 = load ptr, ptr %11, align 8, !tbaa !8
  %142 = call i32 @s_pack_internal(ptr noundef %135, ptr noundef %136, i32 noundef 2, ptr noundef %140, ptr noundef %141)
  %143 = icmp ne i32 %142, 0
  br i1 %143, label %144, label %145

144:                                              ; preds = %134
  call void @PyBuffer_Release(ptr noundef %9)
  store ptr null, ptr %4, align 8
  store i32 1, ptr %12, align 4
  br label %146

145:                                              ; preds = %134
  call void @PyBuffer_Release(ptr noundef %9)
  store ptr @_Py_NoneStruct, ptr %4, align 8
  store i32 1, ptr %12, align 4
  br label %146

146:                                              ; preds = %145, %144, %118, %96, %81, %70, %58, %51
  call void @llvm.lifetime.end.p0(i64 8, ptr %11) #8
  call void @llvm.lifetime.end.p0(i64 8, ptr %10) #8
  call void @llvm.lifetime.end.p0(i64 80, ptr %9) #8
  call void @llvm.lifetime.end.p0(i64 8, ptr %8) #8
  %147 = load ptr, ptr %4, align 8
  ret ptr %147
}