; Function Attrs: nounwind uwtable
define internal ptr @s_pack_into(ptr noundef readonly captures(none) %0, ptr noundef readonly captures(none) %1, i64 noundef %2) #0 {
  %4 = alloca %struct.Py_buffer, align 8
  call void @llvm.lifetime.start.p0(i64 80, ptr nonnull %4) #7
  %5 = getelementptr i8, ptr %0, i64 8
  %.val43 = load ptr, ptr %5, align 8, !tbaa !24
  %6 = tail call ptr @PyType_GetModuleByDef(ptr noundef %.val43, ptr noundef nonnull @_structmodule) #7
  %7 = getelementptr i8, ptr %6, i64 32
  %.val = load ptr, ptr %7, align 8, !tbaa !3
  %8 = getelementptr inbounds nuw i8, ptr %0, i64 24
  %9 = load i64, ptr %8, align 8, !tbaa !42
  %10 = add i64 %9, 2
  %.not = icmp eq i64 %2, %10
  br i1 %.not, label %21, label %11

11:                                               ; preds = %3
  %12 = getelementptr inbounds nuw i8, ptr %.val, i64 24
  %13 = load ptr, ptr %12, align 8, !tbaa !16
  switch i64 %2, label %18 [
    i64 0, label %14
    i64 1, label %16
  ]

14:                                               ; preds = %11
  %15 = tail call ptr (ptr, ptr, ...) @PyErr_Format(ptr noundef %13, ptr noundef nonnull @.str.16) #7
  br label %66

16:                                               ; preds = %11
  %17 = tail call ptr (ptr, ptr, ...) @PyErr_Format(ptr noundef %13, ptr noundef nonnull @.str.17) #7
  br label %66

18:                                               ; preds = %11
  %19 = add i64 %2, -2
  %20 = tail call ptr (ptr, ptr, ...) @PyErr_Format(ptr noundef %13, ptr noundef nonnull @.str.18, i64 noundef %9, i64 noundef %19) #7
  br label %66

21:                                               ; preds = %3
  %22 = load ptr, ptr %1, align 8, !tbaa !17
  %23 = call i32 (ptr, ptr, ...) @PyArg_Parse(ptr noundef %22, ptr noundef nonnull @.str.19, ptr noundef nonnull %4) #7
  %.not40 = icmp eq i32 %23, 0
  br i1 %.not40, label %66, label %24

24:                                               ; preds = %21
  %25 = getelementptr i8, ptr %1, i64 8
  %26 = load ptr, ptr %25, align 8, !tbaa !17
  %27 = load ptr, ptr @PyExc_IndexError, align 8, !tbaa !17
  %28 = call i64 @PyNumber_AsSsize_t(ptr noundef %26, ptr noundef %27) #7
  %29 = icmp eq i64 %28, -1
  br i1 %29, label %30, label %33

30:                                               ; preds = %24
  %31 = call ptr @PyErr_Occurred() #7
  %.not41 = icmp eq ptr %31, null
  br i1 %.not41, label %.thread, label %32

32:                                               ; preds = %30
  call void @PyBuffer_Release(ptr noundef nonnull %4) #7
  br label %66

33:                                               ; preds = %24
  %34 = icmp slt i64 %28, 0
  br i1 %34, label %.thread, label %._crit_edge

._crit_edge:                                      ; preds = %33
  %.phi.trans.insert = getelementptr inbounds nuw i8, ptr %4, i64 16
  %.pre = load i64, ptr %.phi.trans.insert, align 8, !tbaa !25
  %.phi.trans.insert44 = getelementptr inbounds nuw i8, ptr %0, i64 16
  %.pre45 = load i64, ptr %.phi.trans.insert44, align 8, !tbaa !20
  br label %52

.thread:                                          ; preds = %30, %33
  %35 = getelementptr inbounds nuw i8, ptr %0, i64 16
  %36 = load i64, ptr %35, align 8, !tbaa !20
  %37 = add i64 %36, %28
  %38 = icmp sgt i64 %37, 0
  br i1 %38, label %39, label %43

39:                                               ; preds = %.thread
  %40 = getelementptr inbounds nuw i8, ptr %.val, i64 24
  %41 = load ptr, ptr %40, align 8, !tbaa !16
  %42 = call ptr (ptr, ptr, ...) @PyErr_Format(ptr noundef %41, ptr noundef nonnull @.str.20, i64 noundef %36, i64 noundef %28) #7
  call void @PyBuffer_Release(ptr noundef nonnull %4) #7
  br label %66

43:                                               ; preds = %.thread
  %44 = getelementptr inbounds nuw i8, ptr %4, i64 16
  %45 = load i64, ptr %44, align 8, !tbaa !25
  %46 = add i64 %45, %28
  %47 = icmp slt i64 %46, 0
  br i1 %47, label %48, label %52

48:                                               ; preds = %43
  %49 = getelementptr inbounds nuw i8, ptr %.val, i64 24
  %50 = load ptr, ptr %49, align 8, !tbaa !16
  %51 = call ptr (ptr, ptr, ...) @PyErr_Format(ptr noundef %50, ptr noundef nonnull @.str.21, i64 noundef %28, i64 noundef %45) #7
  call void @PyBuffer_Release(ptr noundef nonnull %4) #7
  br label %66

52:                                               ; preds = %._crit_edge, %43
  %53 = phi i64 [ %.pre45, %._crit_edge ], [ %36, %43 ]
  %54 = phi i64 [ %.pre, %._crit_edge ], [ %45, %43 ]
  %.035 = phi i64 [ %28, %._crit_edge ], [ %46, %43 ]
  %55 = sub i64 %54, %.035
  %56 = icmp slt i64 %55, %53
  br i1 %56, label %57, label %62

57:                                               ; preds = %52
  %58 = getelementptr inbounds nuw i8, ptr %.val, i64 24
  %59 = load ptr, ptr %58, align 8, !tbaa !16
  %60 = add i64 %53, %.035
  %61 = call ptr (ptr, ptr, ...) @PyErr_Format(ptr noundef %59, ptr noundef nonnull @.str.22, i64 noundef %60, i64 noundef %53, i64 noundef %.035, i64 noundef %54) #7
  call void @PyBuffer_Release(ptr noundef nonnull %4) #7
  br label %66

62:                                               ; preds = %52
  %63 = load ptr, ptr %4, align 8, !tbaa !30
  %64 = getelementptr i8, ptr %63, i64 %.035
  %65 = call fastcc i32 @s_pack_internal(ptr noundef nonnull %0, ptr noundef nonnull %1, i32 noundef 2, ptr noundef %64, ptr noundef %.val)
  %.not42 = icmp eq i32 %65, 0
  call void @PyBuffer_Release(ptr noundef nonnull %4) #7
  %_Py_NoneStruct. = select i1 %.not42, ptr @_Py_NoneStruct, ptr null
  br label %66

66:                                               ; preds = %62, %21, %14, %18, %16, %57, %48, %39, %32
  %.0 = phi ptr [ null, %32 ], [ null, %39 ], [ null, %48 ], [ null, %57 ], [ null, %16 ], [ null, %18 ], [ null, %14 ], [ null, %21 ], [ %_Py_NoneStruct., %62 ]
  call void @llvm.lifetime.end.p0(i64 80, ptr nonnull %4) #7
  ret ptr %.0
}